target datalayout = "e-m:e-p270:32:32-p271:32:32-p272:64:64-i64:64-i128:128-f80:128-n8:16:32:64-S128"
target triple = "x86_64-pc-linux-gnu"

%struct._zend_executor_globals = type { %struct._zval_struct, %struct._zval_struct, [32 x ptr], ptr, ptr, %struct._zend_array, %struct._zend_array, ptr, i32, i8, %struct._zval_struct, i32, ptr, ptr, ptr, ptr, ptr, ptr, i64, ptr, ptr, i32, ptr, i32, i64, i32, i32, i32, i8, i8, %struct.zend_atomic_bool_s, %struct.zend_atomic_bool_s, ptr, i64, ptr, ptr, %struct._zend_array, %struct._zend_array, i32, i8, %struct._zval_struct, %struct._zval_struct, %struct._zend_stack, %struct._zend_stack, %struct._zend_stack, ptr, i32, i32, i64, ptr, ptr, ptr, %struct._zend_objects_store, %struct._zend_lazy_objects_store, ptr, ptr, ptr, [3 x %struct._zend_op], ptr, i8, i8, i64, i32, i32, ptr, [16 x %struct._HashTableIterator], ptr, %union._zend_function, %struct._zend_op, %struct._zend_array, i64, %struct.zend_get_gc_buffer, ptr, ptr, ptr, i64, i8, i32, ptr, ptr, i64, %struct._zend_call_stack, i64, i64, %struct._zend_strtod_state, [6 x ptr] }
%struct.zend_atomic_bool_s = type { i8 }
%struct._zval_struct = type { %union._zend_value, %union.anon, %union.anon.2 }
%union._zend_value = type { i64 }
%union.anon = type { i32 }
%union.anon.2 = type { i32 }
%struct._zend_stack = type { i32, i32, i32, ptr }
%struct._zend_objects_store = type { ptr, i32, i32, i32 }
%struct._zend_lazy_objects_store = type { %struct._zend_array }
%struct._HashTableIterator = type { ptr, i32, i32 }
%union._zend_function = type { %struct._zend_op_array }
%struct._zend_op_array = type { i8, [3 x i8], i32, ptr, ptr, ptr, i32, i32, ptr, ptr, ptr, ptr, i32, ptr, i32, i32, i32, ptr, ptr, ptr, ptr, ptr, i32, i32, ptr, ptr, ptr, i32, i32, i32, i32, ptr, ptr, [6 x ptr] }
%struct._zend_op = type { ptr, %union._znode_op, %union._znode_op, %union._znode_op, i32, i32, i8, i8, i8, i8 }
%union._znode_op = type { i32 }
%struct._zend_array = type { %struct._zend_refcounted_h, %union.anon.7, i32, %union.anon.9, i32, i32, i32, i32, i64, ptr }
%struct._zend_refcounted_h = type { i32, %union.anon.6 }
%union.anon.6 = type { i32 }
%union.anon.7 = type { i32 }
%union.anon.9 = type { ptr }
%struct.zend_get_gc_buffer = type { ptr, ptr, ptr }
%struct._zend_call_stack = type { ptr, i64 }
%struct._zend_strtod_state = type { [8 x ptr], ptr, ptr }
%struct._zend_string = type { %struct._zend_refcounted_h, i64, i64, [1 x i8] }
%struct._pdo_stmt_t = type { ptr, ptr, [6 x i8], i16, ptr, ptr, ptr, ptr, i32, i32, %union.anon.3, ptr, ptr, ptr, i64, ptr, ptr, ptr, %struct._zend_object }
%union.anon.3 = type { %struct.anon.5 }
%struct.anon.5 = type { %struct._zend_fcall_info_cache }
%struct._zend_fcall_info_cache = type { ptr, ptr, ptr, ptr, ptr }
%struct._zend_object = type { %struct._zend_refcounted_h, i32, i32, ptr, ptr, ptr, [1 x %struct._zval_struct] }
%struct._pdo_dbh_t = type { ptr, ptr, ptr, ptr, i32, ptr, i64, [6 x i8], i32, i32, i32, ptr, i64, i32, [2 x ptr], ptr, ptr, %struct._zval_struct, ptr, ptr, i32 }
%struct.pdo_dbh_methods = type { ptr, ptr, ptr, ptr, ptr, ptr, ptr, ptr, ptr, ptr, ptr, ptr, ptr, ptr, ptr, ptr, ptr }
%struct._zend_execute_data = type { ptr, ptr, ptr, ptr, %struct._zval_struct, ptr, ptr, ptr, ptr }
%struct._pdo_dbh_object_t = type { ptr, %struct._zend_object }
%struct._zend_class_entry = type { i8, ptr, %union.anon.11, i32, i32, i32, i32, ptr, ptr, ptr, %struct._zend_array, %struct._zend_array, %struct._zend_array, ptr, ptr, ptr, ptr, ptr, ptr, ptr, ptr, ptr, ptr, ptr, ptr, ptr, ptr, ptr, ptr, ptr, ptr, ptr, %union.anon.12, ptr, ptr, ptr, ptr, i32, i32, i32, i32, %union.anon.13, ptr, ptr, ptr, ptr, i32, ptr, ptr, %union.anon.14 }
%union.anon.11 = type { ptr }
%union.anon.12 = type { ptr }
%union.anon.13 = type { ptr }
%union.anon.14 = type { %struct.anon.15 }
%struct.anon.15 = type { ptr, i32, i32 }

@executor_globals = external global %struct._zend_executor_globals, align 8
@.str.24 = private unnamed_addr constant [27 x i8] c"%s object is uninitialized\00", align 1
@.str.25 = private unnamed_addr constant [6 x i8] c"00000\00", align 1

; Function Attrs: alwaysinline nounwind uwtable
define internal i32 @zend_hash_num_elements(ptr noundef %0) #3 {
  %2 = alloca ptr, align 8
  store ptr %0, ptr %2, align 8, !tbaa !11
  %3 = load ptr, ptr %2, align 8, !tbaa !11
  %4 = getelementptr inbounds nuw %struct._zend_array, ptr %3, i32 0, i32 5
  %5 = load i32, ptr %4, align 4, !tbaa !154
  ret i32 %5
}

; Function Attrs: inlinehint nounwind uwtable
define internal ptr @php_pdo_dbh_fetch_inner(ptr noundef %0) #8 {
  %2 = alloca ptr, align 8
  store ptr %0, ptr %2, align 8, !tbaa !62
  %3 = load ptr, ptr %2, align 8, !tbaa !62
  %4 = getelementptr inbounds i8, ptr %3, i64 -8
  %5 = getelementptr inbounds nuw %struct._pdo_dbh_object_t, ptr %4, i32 0, i32 0
  %6 = load ptr, ptr %5, align 8, !tbaa !91
  ret ptr %6
}

; Function Attrs: nounwind uwtable
define hidden void @zim_PDO_errorInfo(ptr noundef %0, ptr noundef %1) #0 {
  %3 = alloca ptr, align 8
  %4 = alloca ptr, align 8
  %5 = alloca i32, align 4
  %6 = alloca i32, align 4
  %7 = alloca i32, align 4
  %8 = alloca ptr, align 8
  %9 = alloca i32, align 4
  %10 = alloca ptr, align 8
  %11 = alloca ptr, align 8
  %12 = alloca i32, align 4
  store ptr %0, ptr %3, align 8, !tbaa !75
  store ptr %1, ptr %4, align 8, !tbaa !13
  call void @llvm.lifetime.start.p0(i64 4, ptr %5) #14
  call void @llvm.lifetime.start.p0(i64 4, ptr %6) #14
  store i32 0, ptr %6, align 4, !tbaa !4
  call void @llvm.lifetime.start.p0(i64 4, ptr %7) #14
  store i32 3, ptr %7, align 4, !tbaa !4
  call void @llvm.lifetime.start.p0(i64 8, ptr %8) #14
  %13 = load ptr, ptr %3, align 8, !tbaa !75
  %14 = getelementptr inbounds nuw %struct._zend_execute_data, ptr %13, i32 0, i32 4
  %15 = getelementptr inbounds nuw %struct._zval_struct, ptr %14, i32 0, i32 0
  %16 = load ptr, ptr %15, align 8, !tbaa !15
  %17 = call ptr @php_pdo_dbh_fetch_inner(ptr noundef %16)
  store ptr %17, ptr %8, align 8, !tbaa !63
  br label %18

18:                                               ; preds = %2
  %19 = load ptr, ptr %3, align 8, !tbaa !75
  %20 = getelementptr inbounds nuw %struct._zend_execute_data, ptr %19, i32 0, i32 4
  %21 = getelementptr inbounds nuw %struct._zval_struct, ptr %20, i32 0, i32 2
  %22 = load i32, ptr %21, align 4, !tbaa !15
  %23 = icmp ne i32 %22, 0
  %24 = xor i1 %23, true
  %25 = xor i1 %24, true
  %26 = zext i1 %25 to i32
  %27 = sext i32 %26 to i64
  %28 = call i64 @llvm.expect.i64(i64 %27, i64 0)
  %29 = icmp ne i64 %28, 0
  br i1 %29, label %30, label %31

30:                                               ; preds = %18
  call void @zend_wrong_parameters_none_error()
  store i32 1, ptr %9, align 4
  br label %142

31:                                               ; preds = %18
  br label %32

32:                                               ; preds = %31
  br label %33

33:                                               ; preds = %32
  %34 = load ptr, ptr %8, align 8, !tbaa !63
  %35 = getelementptr inbounds nuw %struct._pdo_dbh_t, ptr %34, i32 0, i32 15
  %36 = load ptr, ptr %35, align 8, !tbaa !99
  %37 = icmp ne ptr %36, null
  br i1 %37, label %54, label %38

38:                                               ; preds = %33
  %39 = load ptr, ptr %3, align 8, !tbaa !75
  %40 = getelementptr inbounds nuw %struct._zend_execute_data, ptr %39, i32 0, i32 4
  %41 = getelementptr inbounds nuw %struct._zval_struct, ptr %40, i32 0, i32 0
  %42 = load ptr, ptr %41, align 8, !tbaa !15
  %43 = getelementptr inbounds nuw %struct._zend_object, ptr %42, i32 0, i32 3
  %44 = load ptr, ptr %43, align 8, !tbaa !135
  %45 = getelementptr inbounds nuw %struct._zend_class_entry, ptr %44, i32 0, i32 1
  %46 = load ptr, ptr %45, align 8, !tbaa !115
  %47 = getelementptr inbounds nuw %struct._zend_string, ptr %46, i32 0, i32 3
  %48 = getelementptr inbounds [1 x i8], ptr %47, i64 0, i64 0
  call void (ptr, ptr, ...) @zend_throw_error(ptr noundef null, ptr noundef @.str.24, ptr noundef %48)
  br label %49

49:                                               ; preds = %38
  %50 = load ptr, ptr getelementptr inbounds nuw (%struct._zend_executor_globals, ptr @executor_globals, i32 0, i32 54), align 8, !tbaa !74
  %51 = icmp ne ptr %50, null
  call void @llvm.assume(i1 %51)
  store i32 1, ptr %9, align 4
  br label %142

52:                                               ; No predecessors!
  br label %53

53:                                               ; preds = %52
  br label %54

54:                                               ; preds = %53, %33
  br label %55

55:                                               ; preds = %54
  call void @llvm.lifetime.start.p0(i64 8, ptr %10) #14
  %56 = call ptr @_zend_new_array_0()
  store ptr %56, ptr %10, align 8, !tbaa !11
  call void @llvm.lifetime.start.p0(i64 8, ptr %11) #14
  %57 = load ptr, ptr %4, align 8, !tbaa !13
  store ptr %57, ptr %11, align 8, !tbaa !13
  %58 = load ptr, ptr %10, align 8, !tbaa !11
  %59 = load ptr, ptr %11, align 8, !tbaa !13
  %60 = getelementptr inbounds nuw %struct._zval_struct, ptr %59, i32 0, i32 0
  store ptr %58, ptr %60, align 8, !tbaa !15
  %61 = load ptr, ptr %11, align 8, !tbaa !13
  %62 = getelementptr inbounds nuw %struct._zval_struct, ptr %61, i32 0, i32 1
  store i32 775, ptr %62, align 8, !tbaa !15
  call void @llvm.lifetime.end.p0(i64 8, ptr %11) #14
  call void @llvm.lifetime.end.p0(i64 8, ptr %10) #14
  br label %63

63:                                               ; preds = %55
  br label %64

64:                                               ; preds = %63
  %65 = load ptr, ptr %8, align 8, !tbaa !63
  %66 = getelementptr inbounds nuw %struct._pdo_dbh_t, ptr %65, i32 0, i32 18
  %67 = load ptr, ptr %66, align 8, !tbaa !133
  %68 = icmp ne ptr %67, null
  br i1 %68, label %69, label %86

69:                                               ; preds = %64
  %70 = load ptr, ptr %4, align 8, !tbaa !13
  %71 = load ptr, ptr %8, align 8, !tbaa !63
  %72 = getelementptr inbounds nuw %struct._pdo_dbh_t, ptr %71, i32 0, i32 18
  %73 = load ptr, ptr %72, align 8, !tbaa !133
  %74 = getelementptr inbounds nuw %struct._pdo_stmt_t, ptr %73, i32 0, i32 2
  %75 = getelementptr inbounds [6 x i8], ptr %74, i64 0, i64 0
  %76 = call i32 @add_next_index_string(ptr noundef %70, ptr noundef %75)
  %77 = load ptr, ptr %8, align 8, !tbaa !63
  %78 = getelementptr inbounds nuw %struct._pdo_dbh_t, ptr %77, i32 0, i32 18
  %79 = load ptr, ptr %78, align 8, !tbaa !133
  %80 = getelementptr inbounds nuw %struct._pdo_stmt_t, ptr %79, i32 0, i32 2
  %81 = getelementptr inbounds [6 x i8], ptr %80, i64 0, i64 0
  %82 = call i32 @strncmp(ptr noundef %81, ptr noundef @.str.25, i64 noundef 6) #15
  %83 = icmp ne i32 %82, 0
  br i1 %83, label %85, label %84

84:                                               ; preds = %69
  br label %118

85:                                               ; preds = %69
  br label %99

86:                                               ; preds = %64
  %87 = load ptr, ptr %4, align 8, !tbaa !13
  %88 = load ptr, ptr %8, align 8, !tbaa !63
  %89 = getelementptr inbounds nuw %struct._pdo_dbh_t, ptr %88, i32 0, i32 7
  %90 = getelementptr inbounds [6 x i8], ptr %89, i64 0, i64 0
  %91 = call i32 @add_next_index_string(ptr noundef %87, ptr noundef %90)
  %92 = load ptr, ptr %8, align 8, !tbaa !63
  %93 = getelementptr inbounds nuw %struct._pdo_dbh_t, ptr %92, i32 0, i32 7
  %94 = getelementptr inbounds [6 x i8], ptr %93, i64 0, i64 0
  %95 = call i32 @strncmp(ptr noundef %94, ptr noundef @.str.25, i64 noundef 6) #15
  %96 = icmp ne i32 %95, 0
  br i1 %96, label %98, label %97

97:                                               ; preds = %86
  br label %118

98:                                               ; preds = %86
  br label %99

99:                                               ; preds = %98, %85
  %100 = load ptr, ptr %8, align 8, !tbaa !63
  %101 = getelementptr inbounds nuw %struct._pdo_dbh_t, ptr %100, i32 0, i32 0
  %102 = load ptr, ptr %101, align 8, !tbaa !69
  %103 = getelementptr inbounds nuw %struct.pdo_dbh_methods, ptr %102, i32 0, i32 9
  %104 = load ptr, ptr %103, align 8, !tbaa !70
  %105 = icmp ne ptr %104, null
  br i1 %105, label %106, label %117

106:                                              ; preds = %99
  %107 = load ptr, ptr %8, align 8, !tbaa !63
  %108 = getelementptr inbounds nuw %struct._pdo_dbh_t, ptr %107, i32 0, i32 0
  %109 = load ptr, ptr %108, align 8, !tbaa !69
  %110 = getelementptr inbounds nuw %struct.pdo_dbh_methods, ptr %109, i32 0, i32 9
  %111 = load ptr, ptr %110, align 8, !tbaa !70
  %112 = load ptr, ptr %8, align 8, !tbaa !63
  %113 = load ptr, ptr %8, align 8, !tbaa !63
  %114 = getelementptr inbounds nuw %struct._pdo_dbh_t, ptr %113, i32 0, i32 18
  %115 = load ptr, ptr %114, align 8, !tbaa !133
  %116 = load ptr, ptr %4, align 8, !tbaa !13
  call void %111(ptr noundef %112, ptr noundef %115, ptr noundef %116)
  br label %117

117:                                              ; preds = %106, %99
  br label %118

118:                                              ; preds = %117, %97, %84
  %119 = load ptr, ptr %4, align 8, !tbaa !13
  %120 = getelementptr inbounds nuw %struct._zval_struct, ptr %119, i32 0, i32 0
  %121 = load ptr, ptr %120, align 8, !tbaa !15
  %122 = call i32 @zend_hash_num_elements(ptr noundef %121)
  store i32 %122, ptr %5, align 4, !tbaa !4
  %123 = load i32, ptr %7, align 4, !tbaa !4
  %124 = load i32, ptr %5, align 4, !tbaa !4
  %125 = icmp sgt i32 %123, %124
  br i1 %125, label %126, label %141

126:                                              ; preds = %118
  call void @llvm.lifetime.start.p0(i64 4, ptr %12) #14
  %127 = load i32, ptr %7, align 4, !tbaa !4
  %128 = load i32, ptr %5, align 4, !tbaa !4
  %129 = sub nsw i32 %127, %128
  store i32 %129, ptr %6, align 4, !tbaa !4
  store i32 0, ptr %12, align 4, !tbaa !4
  br label %130

130:                                              ; preds = %137, %126
  %131 = load i32, ptr %12, align 4, !tbaa !4
  %132 = load i32, ptr %6, align 4, !tbaa !4
  %133 = icmp slt i32 %131, %132
  br i1 %133, label %134, label %140

134:                                              ; preds = %130
  %135 = load ptr, ptr %4, align 8, !tbaa !13
  %136 = call i32 @add_next_index_null(ptr noundef %135)
  br label %137

137:                                              ; preds = %134
  %138 = load i32, ptr %12, align 4, !tbaa !4
  %139 = add nsw i32 %138, 1
  store i32 %139, ptr %12, align 4, !tbaa !4
  br label %130

140:                                              ; preds = %130
  call void @llvm.lifetime.end.p0(i64 4, ptr %12) #14
  br label %141

141:                                              ; preds = %140, %118
  store i32 0, ptr %9, align 4
  br label %142

142:                                              ; preds = %141, %49, %30
  call void @llvm.lifetime.end.p0(i64 8, ptr %8) #14
  call void @llvm.lifetime.end.p0(i64 4, ptr %7) #14
  call void @llvm.lifetime.end.p0(i64 4, ptr %6) #14
  call void @llvm.lifetime.end.p0(i64 4, ptr %5) #14
  %143 = load i32, ptr %9, align 4
  switch i32 %143, label %145 [
    i32 0, label %144
    i32 1, label %144
  ]

144:                                              ; preds = %142, %142
  ret void

145:                                              ; preds = %142
  unreachable
}