; Function Attrs: nounwind uwtable
define hidden void @zim_PDO_errorInfo(ptr noundef readonly captures(none) %0, ptr noundef %1) #0 {
  %3 = getelementptr inbounds nuw i8, ptr %0, i64 32
  %4 = load ptr, ptr %3, align 8, !tbaa !4
  %5 = getelementptr i8, ptr %4, i64 -8
  %.val = load ptr, ptr %5, align 8, !tbaa !90
  %6 = getelementptr inbounds nuw i8, ptr %0, i64 44
  %7 = load i32, ptr %6, align 4, !tbaa !4
  %.not = icmp eq i32 %7, 0
  br i1 %.not, label %9, label %8, !prof !66

8:                                                ; preds = %2
  tail call void @zend_wrong_parameters_none_error() #13
  br label %.loopexit

9:                                                ; preds = %2
  %10 = getelementptr inbounds nuw i8, ptr %.val, i64 120
  %11 = load ptr, ptr %10, align 8, !tbaa !106
  %.not31 = icmp eq ptr %11, null
  br i1 %.not31, label %12, label %20

12:                                               ; preds = %9
  %13 = getelementptr inbounds nuw i8, ptr %4, i64 16
  %14 = load ptr, ptr %13, align 8, !tbaa !119
  %15 = getelementptr inbounds nuw i8, ptr %14, i64 8
  %16 = load ptr, ptr %15, align 8, !tbaa !79
  %17 = getelementptr inbounds nuw i8, ptr %16, i64 24
  tail call void (ptr, ptr, ...) @zend_throw_error(ptr noundef null, ptr noundef nonnull @.str.24, ptr noundef nonnull %17) #13
  %18 = load ptr, ptr getelementptr inbounds nuw (i8, ptr @executor_globals, i64 960), align 8, !tbaa !64
  %19 = icmp ne ptr %18, null
  tail call void @llvm.assume(i1 %19)
  br label %.loopexit

20:                                               ; preds = %9
  %21 = tail call ptr @_zend_new_array_0() #13
  store ptr %21, ptr %1, align 8, !tbaa !4
  %22 = getelementptr inbounds nuw i8, ptr %1, i64 8
  store i32 775, ptr %22, align 8, !tbaa !4
  %23 = getelementptr inbounds nuw i8, ptr %.val, i64 152
  %24 = load ptr, ptr %23, align 8, !tbaa !117
  %.not32 = icmp eq ptr %24, null
  br i1 %.not32, label %31, label %25

25:                                               ; preds = %20
  %26 = getelementptr inbounds nuw i8, ptr %24, i64 16
  %27 = tail call i32 @add_next_index_string(ptr noundef nonnull %1, ptr noundef nonnull %26) #13
  %28 = load ptr, ptr %23, align 8, !tbaa !117
  %29 = getelementptr inbounds nuw i8, ptr %28, i64 16
  %30 = tail call i32 @strncmp(ptr noundef nonnull dereferenceable(1) %29, ptr noundef nonnull dereferenceable(6) @.str.25, i64 noundef 6) #14
  %.not34 = icmp eq i32 %30, 0
  br i1 %.not34, label %41, label %35

31:                                               ; preds = %20
  %32 = getelementptr inbounds nuw i8, ptr %.val, i64 56
  %33 = tail call i32 @add_next_index_string(ptr noundef nonnull %1, ptr noundef nonnull %32) #13
  %34 = tail call i32 @strncmp(ptr noundef nonnull dereferenceable(1) %32, ptr noundef nonnull dereferenceable(6) @.str.25, i64 noundef 6) #14
  %.not33 = icmp eq i32 %34, 0
  br i1 %.not33, label %41, label %35

35:                                               ; preds = %31, %25
  %36 = load ptr, ptr %.val, align 8, !tbaa !59
  %37 = getelementptr inbounds nuw i8, ptr %36, i64 72
  %38 = load ptr, ptr %37, align 8, !tbaa !60
  %.not35 = icmp eq ptr %38, null
  br i1 %.not35, label %41, label %39

39:                                               ; preds = %35
  %40 = load ptr, ptr %23, align 8, !tbaa !117
  tail call void %38(ptr noundef nonnull %.val, ptr noundef %40, ptr noundef nonnull %1) #13
  br label %41

41:                                               ; preds = %35, %39, %31, %25
  %42 = load ptr, ptr %1, align 8, !tbaa !4
  %43 = getelementptr inbounds nuw i8, ptr %42, i64 28
  %44 = load i32, ptr %43, align 4, !tbaa !137
  %45 = icmp slt i32 %44, 3
  br i1 %45, label %.lr.ph.preheader, label %.loopexit

.lr.ph.preheader:                                 ; preds = %41
  %46 = sub i32 3, %44
  %smax = tail call i32 @llvm.smax.i32(i32 %46, i32 1)
  br label %.lr.ph

.lr.ph:                                           ; preds = %.lr.ph.preheader, %.lr.ph
  %.036 = phi i32 [ %48, %.lr.ph ], [ 0, %.lr.ph.preheader ]
  %47 = tail call i32 @add_next_index_null(ptr noundef nonnull %1) #13
  %48 = add nuw nsw i32 %.036, 1
  %exitcond.not = icmp eq i32 %48, %smax
  br i1 %exitcond.not, label %.loopexit, label %.lr.ph

.loopexit:                                        ; preds = %.lr.ph, %41, %12, %8
  ret void
}